Certificate:
    Data:
        Version: 3 (0x2)
        Serial Number:
            a8:a8:5d:c5:25:5d:1d:a3
        Signature Algorithm: sha1WithRSAEncryption
        Issuer: C=US, ST=Illinois, O=Globus, CN=Invalid Crux CA
        Validity
            Not Before: Feb  4 23:13:29 2010 GMT
            Not After : Feb  4 23:13:29 2011 GMT
        Subject: C=US, ST=Illinois, O=Globus, CN=Invalid Crux User
        Subject Public Key Info:
            Public Key Algorithm: rsaEncryption
            RSA Public Key: (1024 bit)
                Modulus (1024 bit):
                    00:ae:15:56:e1:84:b3:86:34:52:98:8b:ea:41:54:
                    37:5c:f2:0b:dd:be:b6:29:cd:ec:22:6c:2a:9e:67:
                    39:ab:fa:f0:23:aa:d5:fc:03:0a:d1:ba:3e:6b:12:
                    e2:bb:ef:f0:a1:f5:3e:57:45:f4:58:b8:0a:22:cc:
                    74:4e:90:bf:4c:98:0e:0d:9e:4a:2f:d4:da:c9:24:
                    90:67:7f:b0:95:cc:36:ab:c5:10:50:02:d6:1e:bd:
                    6a:7f:c7:91:dc:c6:45:fa:d5:3f:dd:e6:c7:fe:fd:
                    f1:09:bd:4c:ce:60:3a:d9:c7:00:3a:a1:ac:73:55:
                    cc:7b:1e:5a:d7:9e:43:83:3d
                Exponent: 65537 (0x10001)
        X509v3 extensions:
            X509v3 Basic Constraints: 
                CA:FALSE
            Netscape Comment: 
                OpenSSL Generated Certificate
            X509v3 Subject Key Identifier: 
                9A:FE:EF:93:F9:4B:65:66:2C:8B:7C:B1:55:8C:7B:A9:65:8B:55:83
            X509v3 Authority Key Identifier: 
                keyid:5C:16:E7:D6:01:8A:3A:A9:B3:ED:24:F2:B6:A3:33:9D:C8:EC:84:BE

    Signature Algorithm: sha1WithRSAEncryption
        6b:3b:75:41:3e:50:bf:bb:62:a4:d8:9a:88:fd:19:09:31:ec:
        79:32:0c:c8:66:2a:d8:fb:97:c0:4e:c4:77:d3:a9:39:8d:cb:
        ad:31:a5:87:ed:6f:34:91:3e:fd:2f:2e:7c:27:90:d8:e8:f5:
        34:3b:bb:12:46:eb:4b:24:87:2a:96:4a:45:40:59:42:95:fe:
        61:8d:1e:b8:7a:7a:7c:e7:30:95:44:3e:d9:70:06:19:d4:f2:
        24:db:6d:d4:f4:e5:69:24:c1:61:e4:44:9a:02:18:83:d8:94:
        69:51:68:76:f5:2f:df:8e:ba:72:b5:62:3f:5a:55:b9:ae:5f:
        88:0c
-----BEGIN CERTIFICATE-----
MIICkTCCAfqgAwIBAgIJAKioXcUlXR2jMA0GCSqGSIb3DQEBBQUAMEsxCzAJBgNV
BAYTAlVTMREwDwYDVQQIEwhJbGxpbm9pczEPMA0GA1UEChMGR2xvYnVzMRgwFgYD
VQQDEw9JbnZhbGlkIENydXggQ0EwHhcNMTAwMjA0MjMxMzI5WhcNMTEwMjA0MjMx
MzI5WjBNMQswCQYDVQQGEwJVUzERMA8GA1UECBMISWxsaW5vaXMxDzANBgNVBAoT
Bkdsb2J1czEaMBgGA1UEAxMRSW52YWxpZCBDcnV4IFVzZXIwgZ8wDQYJKoZIhvcN
AQEBBQADgY0AMIGJAoGBAK4VVuGEs4Y0UpiL6kFUN1zyC92+tinN7CJsKp5nOav6
8COq1fwDCtG6PmsS4rvv8KH1PldF9Fi4CiLMdE6Qv0yYDg2eSi/U2skkkGd/sJXM
NqvFEFAC1h69an/HkdzGRfrVP93mx/798Qm9TM5gOtnHADqhrHNVzHseWteeQ4M9
AgMBAAGjezB5MAkGA1UdEwQCMAAwLAYJYIZIAYb4QgENBB8WHU9wZW5TU0wgR2Vu
ZXJhdGVkIENlcnRpZmljYXRlMB0GA1UdDgQWBBSa/u+T+UtlZiyLfLFVjHupZYtV
gzAfBgNVHSMEGDAWgBRcFufWAYo6qbPtJPK2ozOdyOyEvjANBgkqhkiG9w0BAQUF
AAOBgQBrO3VBPlC/u2Kk2JqI/RkJMex5MgzIZirY+5fATsR306k5jcutMaWH7W80
kT79Ly58J5DY6PU0O7sSRutLJIcqlkpFQFlClf5hjR64enp85zCVRD7ZcAYZ1PIk
223U9OVpJMFh5ESaAhiD2JRpUWh29S/fjrpytWI/WlW5rl+IDA==
-----END CERTIFICATE-----
