Certificate:
    Data:
        Version: 3 (0x2)
        Serial Number:
            ee:38:d8:82:83:97:2e:60
        Signature Algorithm: sha1WithRSAEncryption
        Issuer: C=US, ST=Illinois, O=Globus, CN=Crux Certificate Authority
        Validity
            Not Before: Feb  2 21:41:04 2010 GMT
            Not After : Feb  2 21:41:04 2011 GMT
        Subject: C=US, ST=Illinois, O=Globus, CN=Globus Server
        Subject Public Key Info:
            Public Key Algorithm: rsaEncryption
            RSA Public Key: (1024 bit)
                Modulus (1024 bit):
                    00:c8:ac:e7:e9:a6:52:8b:e5:41:85:3d:57:1b:d9:
                    aa:cc:00:de:41:8e:c0:3b:61:7c:d3:d0:b4:cc:34:
                    e1:f7:83:34:c5:b9:1e:7c:05:d9:ba:94:40:66:46:
                    7e:92:06:91:bb:aa:67:7d:47:d5:0b:cb:6f:b7:5b:
                    20:4a:cb:9b:23:6b:74:67:59:d2:84:ef:bf:23:b5:
                    24:55:f3:31:20:86:a7:20:cf:81:49:ff:7a:8f:0c:
                    e5:dd:bc:a9:32:44:50:2a:e2:4a:94:83:dc:fa:00:
                    c0:9f:de:73:a6:ed:46:45:66:52:fd:eb:d6:20:de:
                    42:76:cd:74:db:0a:1d:e1:bb
                Exponent: 65537 (0x10001)
        X509v3 extensions:
            X509v3 Basic Constraints: 
                CA:FALSE
            Netscape Comment: 
                OpenSSL Generated Certificate
            X509v3 Subject Key Identifier: 
                30:85:94:87:B3:53:92:85:9C:33:C9:B2:47:E9:D8:59:09:CC:8A:12
            X509v3 Authority Key Identifier: 
                keyid:01:9D:F0:70:CC:86:45:40:F3:0A:27:00:CA:00:0A:AB:A4:8E:65:01

    Signature Algorithm: sha1WithRSAEncryption
        c3:5a:96:7f:c5:1a:bb:da:89:26:5d:75:87:d0:64:ee:d6:91:
        7c:60:fe:cb:e5:c4:37:76:7f:36:c6:a8:e8:d9:a7:38:2d:9b:
        70:09:dc:ea:de:20:bb:e1:83:40:1c:42:5f:43:66:da:3a:10:
        b2:f4:d0:09:3c:cf:ff:21:98:22:e8:3d:3e:bb:fa:58:2d:c0:
        37:58:4b:fb:bb:20:10:d7:83:96:42:b3:19:e9:ab:8c:5c:b7:
        71:1d:25:e7:00:bc:cc:29:11:a3:7d:bb:33:68:15:26:63:7f:
        31:96:2b:41:53:69:be:2c:51:4d:4f:7d:0f:c3:04:26:1f:fd:
        dc:35
-----BEGIN CERTIFICATE-----
MIICmDCCAgGgAwIBAgIJAO442IKDly5gMA0GCSqGSIb3DQEBBQUAMFYxCzAJBgNV
BAYTAlVTMREwDwYDVQQIEwhJbGxpbm9pczEPMA0GA1UEChMGR2xvYnVzMSMwIQYD
VQQDExpDcnV4IENlcnRpZmljYXRlIEF1dGhvcml0eTAeFw0xMDAyMDIyMTQxMDRa
Fw0xMTAyMDIyMTQxMDRaMEkxCzAJBgNVBAYTAlVTMREwDwYDVQQIEwhJbGxpbm9p
czEPMA0GA1UEChMGR2xvYnVzMRYwFAYDVQQDEw1HbG9idXMgU2VydmVyMIGfMA0G
CSqGSIb3DQEBAQUAA4GNADCBiQKBgQDIrOfpplKL5UGFPVcb2arMAN5BjsA7YXzT
0LTMNOH3gzTFuR58Bdm6lEBmRn6SBpG7qmd9R9ULy2+3WyBKy5sja3RnWdKE778j
tSRV8zEghqcgz4FJ/3qPDOXdvKkyRFAq4kqUg9z6AMCf3nOm7UZFZlL969Yg3kJ2
zXTbCh3huwIDAQABo3sweTAJBgNVHRMEAjAAMCwGCWCGSAGG+EIBDQQfFh1PcGVu
U1NMIEdlbmVyYXRlZCBDZXJ0aWZpY2F0ZTAdBgNVHQ4EFgQUMIWUh7NTkoWcM8my
R+nYWQnMihIwHwYDVR0jBBgwFoAUAZ3wcMyGRUDzCicAygAKq6SOZQEwDQYJKoZI
hvcNAQEFBQADgYEAw1qWf8Uau9qJJl11h9Bk7taRfGD+y+XEN3Z/Nsao6NmnOC2b
cAnc6t4gu+GDQBxCX0Nm2joQsvTQCTzP/yGYIug9Prv6WC3AN1hL+7sgENeDlkKz
GemrjFy3cR0l5wC8zCkRo327M2gVJmN/MZYrQVNpvixRTU99D8MEJh/93DU=
-----END CERTIFICATE-----
