Certificate:
    Data:
        Version: 3 (0x2)
        Serial Number:
            ee:38:d8:82:83:97:2e:5f
        Signature Algorithm: sha1WithRSAEncryption
        Issuer: C=US, ST=Illinois, O=Globus, CN=Crux Certificate Authority
        Validity
            Not Before: Feb  2 21:40:29 2010 GMT
            Not After : Feb  1 21:40:29 2013 GMT
        Subject: C=US, ST=Illinois, O=Globus, CN=Crux Certificate Authority
        Subject Public Key Info:
            Public Key Algorithm: rsaEncryption
            RSA Public Key: (1024 bit)
                Modulus (1024 bit):
                    00:ce:f7:ee:82:17:8b:4e:cd:56:98:0d:42:e4:21:
                    eb:f4:9d:f0:fc:eb:08:bd:75:2f:d7:fa:a5:cb:e3:
                    6d:1f:8b:ca:1f:e6:a7:c2:65:d7:85:58:c6:85:eb:
                    f6:7b:59:71:bc:fb:07:f0:8a:18:eb:80:a7:50:a5:
                    ac:57:5a:f4:93:ae:9f:f0:d8:73:9e:0b:73:35:1d:
                    92:69:0a:d0:06:34:cd:50:ac:6b:23:de:15:71:60:
                    4a:2a:5c:a8:da:9b:91:95:b7:1b:03:a4:63:5d:20:
                    7f:83:59:7e:d0:1a:2f:72:54:f4:b7:b5:39:96:e3:
                    94:ee:60:86:01:d4:4d:4a:e3
                Exponent: 65537 (0x10001)
        X509v3 extensions:
            X509v3 Subject Key Identifier: 
                01:9D:F0:70:CC:86:45:40:F3:0A:27:00:CA:00:0A:AB:A4:8E:65:01
            X509v3 Authority Key Identifier: 
                keyid:01:9D:F0:70:CC:86:45:40:F3:0A:27:00:CA:00:0A:AB:A4:8E:65:01
                DirName:/C=US/ST=Illinois/O=Globus/CN=Crux Certificate Authority
                serial:EE:38:D8:82:83:97:2E:5F

            X509v3 Basic Constraints: 
                CA:TRUE
    Signature Algorithm: sha1WithRSAEncryption
        76:56:ce:42:f1:7d:8d:38:23:01:f1:7f:39:08:33:5b:fb:06:
        14:54:c6:ff:6b:3d:13:fc:1c:0a:fc:7a:7b:d7:0a:56:5d:a3:
        3d:c3:83:27:62:f6:c8:e7:bd:e5:9b:4b:c1:4a:6b:36:99:b1:
        0c:14:41:81:1b:b6:0b:43:52:5b:e9:f5:a5:0d:02:72:fc:d3:
        15:2f:37:17:1f:c6:a6:f8:68:49:b5:1f:10:77:c8:3d:74:f0:
        55:7d:f7:5c:fa:65:5b:d8:c4:a8:4a:f3:f8:d9:90:1a:ee:d6:
        c3:48:ef:82:2a:53:11:3d:fa:f6:87:54:74:d5:a5:79:cd:96:
        de:d3
-----BEGIN CERTIFICATE-----
MIIC5DCCAk2gAwIBAgIJAO442IKDly5fMA0GCSqGSIb3DQEBBQUAMFYxCzAJBgNV
BAYTAlVTMREwDwYDVQQIEwhJbGxpbm9pczEPMA0GA1UEChMGR2xvYnVzMSMwIQYD
VQQDExpDcnV4IENlcnRpZmljYXRlIEF1dGhvcml0eTAeFw0xMDAyMDIyMTQwMjla
Fw0xMzAyMDEyMTQwMjlaMFYxCzAJBgNVBAYTAlVTMREwDwYDVQQIEwhJbGxpbm9p
czEPMA0GA1UEChMGR2xvYnVzMSMwIQYDVQQDExpDcnV4IENlcnRpZmljYXRlIEF1
dGhvcml0eTCBnzANBgkqhkiG9w0BAQEFAAOBjQAwgYkCgYEAzvfugheLTs1WmA1C
5CHr9J3w/OsIvXUv1/qly+NtH4vKH+anwmXXhVjGhev2e1lxvPsH8IoY64CnUKWs
V1r0k66f8NhzngtzNR2SaQrQBjTNUKxrI94VcWBKKlyo2puRlbcbA6RjXSB/g1l+
0BovclT0t7U5luOU7mCGAdRNSuMCAwEAAaOBuTCBtjAdBgNVHQ4EFgQUAZ3wcMyG
RUDzCicAygAKq6SOZQEwgYYGA1UdIwR/MH2AFAGd8HDMhkVA8wonAMoACqukjmUB
oVqkWDBWMQswCQYDVQQGEwJVUzERMA8GA1UECBMISWxsaW5vaXMxDzANBgNVBAoT
Bkdsb2J1czEjMCEGA1UEAxMaQ3J1eCBDZXJ0aWZpY2F0ZSBBdXRob3JpdHmCCQDu
ONiCg5cuXzAMBgNVHRMEBTADAQH/MA0GCSqGSIb3DQEBBQUAA4GBAHZWzkLxfY04
IwHxfzkIM1v7BhRUxv9rPRP8HAr8envXClZdoz3Dgydi9sjnveWbS8FKazaZsQwU
QYEbtgtDUlvp9aUNAnL80xUvNxcfxqb4aEm1HxB3yD108FV991z6ZVvYxKhK8/jZ
kBru1sNI74IqUxE9+vaHVHTVpXnNlt7T
-----END CERTIFICATE-----
